; Function Attrs: mustprogress uwtable
define void @_ZN5nblib23GmxNBForceCalculatorCpu7computeEN3gmx8ArrayRefIKNS1_11BasicVectorIfEEEERKNS_3BoxENS2_IS4_EENS2_IfEE(ptr nocapture noundef nonnull readonly align 8 dereferenceable(8) %0, ptr %1, ptr %2, ptr noundef nonnull align 4 dereferenceable(36) %3, ptr %4, ptr %5, ptr nocapture noundef readonly byval(%"class.gmx::ArrayRef.0") align 8 %6) local_unnamed_addr #0 align 2 {
  %8 = alloca %"class.gmx::ArrayRef.0", align 8
  %9 = alloca %"class.gmx::ArrayRef.0", align 8
  %10 = load ptr, ptr %0, align 8
  %11 = ptrtoint ptr %2 to i64
  %12 = ptrtoint ptr %1 to i64
  %13 = sub i64 %11, %12
  %14 = getelementptr inbounds i8, ptr %1, i64 %13
  %15 = ptrtoint ptr %5 to i64
  %16 = ptrtoint ptr %4 to i64
  %17 = sub i64 %15, %16
  %18 = getelementptr inbounds i8, ptr %4, i64 %17
  %19 = load ptr, ptr %6, align 8
  %20 = getelementptr inbounds i8, ptr %6, i64 8
  %21 = load ptr, ptr %20, align 8
  %22 = ptrtoint ptr %21 to i64
  %23 = ptrtoint ptr %19 to i64
  %24 = sub i64 %22, %23
  %25 = getelementptr inbounds i8, ptr %19, i64 %24
  call void @llvm.lifetime.start.p0(i64 16, ptr nonnull %8)
  call void @llvm.lifetime.start.p0(i64 16, ptr nonnull %9)
  store ptr %19, ptr %8, align 8
  %26 = getelementptr inbounds i8, ptr %8, i64 8
  store ptr %25, ptr %26, align 8
  call void @llvm.memset.p0.i64(ptr noundef nonnull align 8 dereferenceable(16) %9, i8 0, i64 16, i1 false)
  tail call void @_ZN5nblib23GmxNBForceCalculatorCpu7CpuImpl7computeEN3gmx8ArrayRefIKNS2_11BasicVectorIfEEEERKNS_3BoxENS3_IS5_EENS3_IfEESC_(ptr noundef nonnull align 8 dereferenceable(2584) %10, ptr %1, ptr %14, ptr noundef nonnull align 4 dereferenceable(36) %3, ptr %4, ptr %18, ptr noundef nonnull byval(%"class.gmx::ArrayRef.0") align 8 %8, ptr noundef nonnull byval(%"class.gmx::ArrayRef.0") align 8 %9)
  call void @llvm.lifetime.end.p0(i64 16, ptr nonnull %8)
  call void @llvm.lifetime.end.p0(i64 16, ptr nonnull %9)
  ret void
}